(dp0
S'diameter'
p1
NsS'avg_clustering_coef'
p2
F0.0278612814145809
sS'density'
p3
F0.02144411063917953
sS'avg_degree'
p4
F4.2030456852791875
sS'num_connected_components'
p5
I2
sS'transitivity'
p6
F0.022968197879858657
sS'num_edges'
p7
I414
sS'num_nodes'
p8
I197
s.