(dp0
S'diameter'
p1
I2
sS'avg_clustering_coef'
p2
F0.6236501268152613
sS'density'
p3
F0.0357624201016827
sS'avg_degree'
p4
F19.562043795620436
sS'num_connected_components'
p5
I1
sS'transitivity'
p6
F0.25808852369985213
sS'num_edges'
p7
I5360
sS'num_nodes'
p8
I548
s.