(dp0
S'diameter'
p1
I2
sS'avg_clustering_coef'
p2
F0.7504107487132204
sS'density'
p3
F0.1519674355495251
sS'avg_degree'
p4
F10.029850746268657
sS'num_connected_components'
p5
I1
sS'transitivity'
p6
F0.49418503731990976
sS'num_edges'
p7
I336
sS'num_nodes'
p8
I67
s.