(dp0
S'diameter'
p1
I2
sS'avg_clustering_coef'
p2
F0.6556880557441127
sS'density'
p3
F0.11581920903954802
sS'avg_degree'
p4
F6.833333333333333
sS'num_connected_components'
p5
I1
sS'transitivity'
p6
F0.3016330451488953
sS'num_edges'
p7
I205
sS'num_nodes'
p8
I60
s.