(dp0
S'diameter'
p1
I2
sS'avg_clustering_coef'
p2
F0.6230102966029213
sS'density'
p3
F0.12562779497764018
sS'avg_degree'
p4
F21.35672514619883
sS'num_connected_components'
p5
I1
sS'transitivity'
p6
F0.41013555846670846
sS'num_edges'
p7
I1826
sS'num_nodes'
p8
I171
s.